target datalayout = "e-m:e-p270:32:32-p271:32:32-p272:64:64-i64:64-i128:128-f80:128-n8:16:32:64-S128"
target triple = "x86_64-pc-linux-gnu"

%struct.Clu_Man_t_ = type { i32, i32, i32, i32, i32, i32, i32, i32, i32, i32, i32, i32, i32, i32, i32, ptr, ptr, ptr, ptr, i32, i32, i32, ptr, ptr, ptr, i32, i32, i32, i32, ptr, ptr, ptr, i32, i32 }
%struct.Cnf_Dat_t_ = type { ptr, i32, i32, i32, ptr, ptr, ptr, ptr, ptr, ptr }
%struct.Aig_Obj_t_ = type { %union.anon, ptr, ptr, i64, i32, i32, %union.anon.0 }
%union.anon = type { ptr }
%union.anon.0 = type { ptr }
%struct.Aig_Man_t_ = type { ptr, ptr, ptr, ptr, ptr, ptr, ptr, %struct.Aig_Obj_t_, i32, i32, i32, i32, i32, i32, [7 x i32], i32, ptr, i32, ptr, i32, ptr, i32, i32, i32, ptr, i32, i32, i32, i32, i32, ptr, ptr, i32, ptr, ptr, i32, ptr, ptr, i32, i32, i32, ptr, ptr, ptr, ptr, ptr, ptr, ptr, ptr, ptr, ptr, ptr, ptr, ptr, ptr, i32, ptr, ptr, ptr, ptr, i32, i64, i64, i64, ptr, ptr }
%struct.Vec_Int_t_ = type { i32, i32, ptr }
%struct.Vec_Ptr_t_ = type { i32, i32, ptr }

@.str.25 = private unnamed_addr constant [10 x i8] c"_care.aig\00", align 1
@.str.26 = private unnamed_addr constant [58 x i8] c"Care one-hotness clauses will be written into file \22%s\22.\0A\00", align 1

; Function Attrs: inlinehint nounwind uwtable
define internal ptr @Vec_PtrEntry(ptr noundef %0, i32 noundef %1) #2 {
  %3 = alloca ptr, align 8
  %4 = alloca i32, align 4
  store ptr %0, ptr %3, align 8, !tbaa !109
  store i32 %1, ptr %4, align 4, !tbaa !21
  %5 = load ptr, ptr %3, align 8, !tbaa !109
  %6 = getelementptr inbounds nuw %struct.Vec_Ptr_t_, ptr %5, i32 0, i32 2
  %7 = load ptr, ptr %6, align 8, !tbaa !112
  %8 = load i32, ptr %4, align 4, !tbaa !21
  %9 = sext i32 %8 to i64
  %10 = getelementptr inbounds ptr, ptr %7, i64 %9
  %11 = load ptr, ptr %10, align 8, !tbaa !113
  ret ptr %11
}

; Function Attrs: inlinehint nounwind uwtable
define internal ptr @Aig_NotCond(ptr noundef %0, i32 noundef %1) #2 {
  %3 = alloca ptr, align 8
  %4 = alloca i32, align 4
  store ptr %0, ptr %3, align 8, !tbaa !23
  store i32 %1, ptr %4, align 4, !tbaa !21
  %5 = load ptr, ptr %3, align 8, !tbaa !23
  %6 = ptrtoint ptr %5 to i64
  %7 = load i32, ptr %4, align 4, !tbaa !21
  %8 = sext i32 %7 to i64
  %9 = xor i64 %6, %8
  %10 = inttoptr i64 %9 to ptr
  ret ptr %10
}

; Function Attrs: inlinehint nounwind uwtable
define internal i32 @lit_sign(i32 noundef %0) #2 {
  %2 = alloca i32, align 4
  store i32 %0, ptr %2, align 4, !tbaa !21
  %3 = load i32, ptr %2, align 4, !tbaa !21
  %4 = and i32 %3, 1
  ret i32 %4
}

; Function Attrs: inlinehint nounwind uwtable
define internal ptr @Aig_ManObj(ptr noundef %0, i32 noundef %1) #2 {
  %3 = alloca ptr, align 8
  %4 = alloca i32, align 4
  store ptr %0, ptr %3, align 8, !tbaa !34
  store i32 %1, ptr %4, align 4, !tbaa !21
  %5 = load ptr, ptr %3, align 8, !tbaa !34
  %6 = getelementptr inbounds nuw %struct.Aig_Man_t_, ptr %5, i32 0, i32 4
  %7 = load ptr, ptr %6, align 8, !tbaa !118
  %8 = icmp ne ptr %7, null
  br i1 %8, label %9, label %15

9:                                                ; preds = %2
  %10 = load ptr, ptr %3, align 8, !tbaa !34
  %11 = getelementptr inbounds nuw %struct.Aig_Man_t_, ptr %10, i32 0, i32 4
  %12 = load ptr, ptr %11, align 8, !tbaa !118
  %13 = load i32, ptr %4, align 4, !tbaa !21
  %14 = call ptr @Vec_PtrEntry(ptr noundef %12, i32 noundef %13)
  br label %16

15:                                               ; preds = %2
  br label %16

16:                                               ; preds = %15, %9
  %17 = phi ptr [ %14, %9 ], [ null, %15 ]
  ret ptr %17
}

; Function Attrs: inlinehint nounwind uwtable
define internal i32 @lit_var(i32 noundef %0) #2 {
  %2 = alloca i32, align 4
  store i32 %0, ptr %2, align 4, !tbaa !21
  %3 = load i32, ptr %2, align 4, !tbaa !21
  %4 = ashr i32 %3, 1
  ret i32 %4
}

; Function Attrs: inlinehint nounwind uwtable
define internal i32 @Vec_PtrSize(ptr noundef %0) #2 {
  %2 = alloca ptr, align 8
  store ptr %0, ptr %2, align 8, !tbaa !109
  %3 = load ptr, ptr %2, align 8, !tbaa !109
  %4 = getelementptr inbounds nuw %struct.Vec_Ptr_t_, ptr %3, i32 0, i32 1
  %5 = load i32, ptr %4, align 4, !tbaa !110
  ret i32 %5
}

; Function Attrs: nounwind uwtable
define ptr @Fra_ClausGetLiteral(ptr noundef %0, ptr noundef %1, i32 noundef %2) #0 {
  %4 = alloca ptr, align 8
  %5 = alloca ptr, align 8
  %6 = alloca i32, align 4
  %7 = alloca ptr, align 8
  %8 = alloca i32, align 4
  store ptr %0, ptr %4, align 8, !tbaa !3
  store ptr %1, ptr %5, align 8, !tbaa !42
  store i32 %2, ptr %6, align 4, !tbaa !21
  call void @llvm.lifetime.start.p0(i64 8, ptr %7) #11
  call void @llvm.lifetime.start.p0(i64 4, ptr %8) #11
  %9 = load ptr, ptr %5, align 8, !tbaa !42
  %10 = load i32, ptr %6, align 4, !tbaa !21
  %11 = call i32 @lit_var(i32 noundef %10)
  %12 = sext i32 %11 to i64
  %13 = getelementptr inbounds i32, ptr %9, i64 %12
  %14 = load i32, ptr %13, align 4, !tbaa !21
  store i32 %14, ptr %8, align 4, !tbaa !21
  %15 = load ptr, ptr %4, align 8, !tbaa !3
  %16 = getelementptr inbounds nuw %struct.Clu_Man_t_, ptr %15, i32 0, i32 15
  %17 = load ptr, ptr %16, align 8, !tbaa !22
  %18 = load i32, ptr %8, align 4, !tbaa !21
  %19 = call ptr @Aig_ManObj(ptr noundef %17, i32 noundef %18)
  %20 = getelementptr inbounds nuw %struct.Aig_Obj_t_, ptr %19, i32 0, i32 6
  %21 = load ptr, ptr %20, align 8, !tbaa !127
  store ptr %21, ptr %7, align 8, !tbaa !23
  %22 = load ptr, ptr %7, align 8, !tbaa !23
  %23 = load i32, ptr %6, align 4, !tbaa !21
  %24 = call i32 @lit_sign(i32 noundef %23)
  %25 = call ptr @Aig_NotCond(ptr noundef %22, i32 noundef %24)
  call void @llvm.lifetime.end.p0(i64 4, ptr %8) #11
  call void @llvm.lifetime.end.p0(i64 8, ptr %7) #11
  ret ptr %25
}

; Function Attrs: inlinehint nounwind uwtable
define internal i32 @Vec_IntEntry(ptr noundef %0, i32 noundef %1) #2 {
  %3 = alloca ptr, align 8
  %4 = alloca i32, align 4
  store ptr %0, ptr %3, align 8, !tbaa !90
  store i32 %1, ptr %4, align 4, !tbaa !21
  %5 = load ptr, ptr %3, align 8, !tbaa !90
  %6 = getelementptr inbounds nuw %struct.Vec_Int_t_, ptr %5, i32 0, i32 2
  %7 = load ptr, ptr %6, align 8, !tbaa !93
  %8 = load i32, ptr %4, align 4, !tbaa !21
  %9 = sext i32 %8 to i64
  %10 = getelementptr inbounds i32, ptr %7, i64 %9
  %11 = load i32, ptr %10, align 4, !tbaa !21
  ret i32 %11
}

; Function Attrs: inlinehint nounwind uwtable
define internal i32 @Vec_IntSize(ptr noundef %0) #2 {
  %2 = alloca ptr, align 8
  store ptr %0, ptr %2, align 8, !tbaa !90
  %3 = load ptr, ptr %2, align 8, !tbaa !90
  %4 = getelementptr inbounds nuw %struct.Vec_Int_t_, ptr %3, i32 0, i32 1
  %5 = load i32, ptr %4, align 4, !tbaa !91
  ret i32 %5
}

; Function Attrs: inlinehint nounwind uwtable
define internal ptr @Vec_IntArray(ptr noundef %0) #2 {
  %2 = alloca ptr, align 8
  store ptr %0, ptr %2, align 8, !tbaa !90
  %3 = load ptr, ptr %2, align 8, !tbaa !90
  %4 = getelementptr inbounds nuw %struct.Vec_Int_t_, ptr %3, i32 0, i32 2
  %5 = load ptr, ptr %4, align 8, !tbaa !93
  ret ptr %5
}

; Function Attrs: inlinehint nounwind uwtable
define internal i32 @Aig_ManObjNumMax(ptr noundef %0) #2 {
  %2 = alloca ptr, align 8
  store ptr %0, ptr %2, align 8, !tbaa !34
  %3 = load ptr, ptr %2, align 8, !tbaa !34
  %4 = getelementptr inbounds nuw %struct.Aig_Man_t_, ptr %3, i32 0, i32 4
  %5 = load ptr, ptr %4, align 8, !tbaa !118
  %6 = call i32 @Vec_PtrSize(ptr noundef %5)
  ret i32 %6
}

; Function Attrs: nounwind uwtable
define void @Fra_ClausWriteIndClauses(ptr noundef %0) #0 {
  %2 = alloca ptr, align 8
  %3 = alloca ptr, align 8
  %4 = alloca ptr, align 8
  %5 = alloca ptr, align 8
  %6 = alloca ptr, align 8
  %7 = alloca ptr, align 8
  %8 = alloca ptr, align 8
  %9 = alloca i32, align 4
  %10 = alloca i32, align 4
  %11 = alloca i32, align 4
  %12 = alloca i32, align 4
  store ptr %0, ptr %2, align 8, !tbaa !3
  call void @llvm.lifetime.start.p0(i64 8, ptr %3) #11
  call void @llvm.lifetime.start.p0(i64 8, ptr %4) #11
  call void @llvm.lifetime.start.p0(i64 8, ptr %5) #11
  call void @llvm.lifetime.start.p0(i64 8, ptr %6) #11
  call void @llvm.lifetime.start.p0(i64 8, ptr %7) #11
  call void @llvm.lifetime.start.p0(i64 8, ptr %8) #11
  call void @llvm.lifetime.start.p0(i64 4, ptr %9) #11
  call void @llvm.lifetime.start.p0(i64 4, ptr %10) #11
  call void @llvm.lifetime.start.p0(i64 4, ptr %11) #11
  call void @llvm.lifetime.start.p0(i64 4, ptr %12) #11
  %13 = load ptr, ptr %2, align 8, !tbaa !3
  %14 = getelementptr inbounds nuw %struct.Clu_Man_t_, ptr %13, i32 0, i32 18
  %15 = load ptr, ptr %14, align 8, !tbaa !8
  %16 = getelementptr inbounds nuw %struct.Cnf_Dat_t_, ptr %15, i32 0, i32 1
  %17 = load i32, ptr %16, align 8, !tbaa !16
  %18 = sext i32 %17 to i64
  %19 = mul i64 4, %18
  %20 = call noalias ptr @malloc(i64 noundef %19) #12
  store ptr %20, ptr %8, align 8, !tbaa !42
  %21 = load ptr, ptr %8, align 8, !tbaa !42
  %22 = load ptr, ptr %2, align 8, !tbaa !3
  %23 = getelementptr inbounds nuw %struct.Clu_Man_t_, ptr %22, i32 0, i32 18
  %24 = load ptr, ptr %23, align 8, !tbaa !8
  %25 = getelementptr inbounds nuw %struct.Cnf_Dat_t_, ptr %24, i32 0, i32 1
  %26 = load i32, ptr %25, align 8, !tbaa !16
  %27 = sext i32 %26 to i64
  %28 = mul i64 4, %27
  call void @llvm.memset.p0.i64(ptr align 4 %21, i8 -1, i64 %28, i1 false)
  store i32 0, ptr %11, align 4, !tbaa !21
  br label %29

29:                                               ; preds = %62, %1
  %30 = load i32, ptr %11, align 4, !tbaa !21
  %31 = load ptr, ptr %2, align 8, !tbaa !3
  %32 = getelementptr inbounds nuw %struct.Clu_Man_t_, ptr %31, i32 0, i32 15
  %33 = load ptr, ptr %32, align 8, !tbaa !22
  %34 = call i32 @Aig_ManObjNumMax(ptr noundef %33)
  %35 = icmp slt i32 %30, %34
  br i1 %35, label %36, label %65

36:                                               ; preds = %29
  %37 = load ptr, ptr %2, align 8, !tbaa !3
  %38 = getelementptr inbounds nuw %struct.Clu_Man_t_, ptr %37, i32 0, i32 18
  %39 = load ptr, ptr %38, align 8, !tbaa !8
  %40 = getelementptr inbounds nuw %struct.Cnf_Dat_t_, ptr %39, i32 0, i32 5
  %41 = load ptr, ptr %40, align 8, !tbaa !27
  %42 = load i32, ptr %11, align 4, !tbaa !21
  %43 = sext i32 %42 to i64
  %44 = getelementptr inbounds i32, ptr %41, i64 %43
  %45 = load i32, ptr %44, align 4, !tbaa !21
  %46 = icmp sge i32 %45, 0
  br i1 %46, label %47, label %61

47:                                               ; preds = %36
  %48 = load i32, ptr %11, align 4, !tbaa !21
  %49 = load ptr, ptr %8, align 8, !tbaa !42
  %50 = load ptr, ptr %2, align 8, !tbaa !3
  %51 = getelementptr inbounds nuw %struct.Clu_Man_t_, ptr %50, i32 0, i32 18
  %52 = load ptr, ptr %51, align 8, !tbaa !8
  %53 = getelementptr inbounds nuw %struct.Cnf_Dat_t_, ptr %52, i32 0, i32 5
  %54 = load ptr, ptr %53, align 8, !tbaa !27
  %55 = load i32, ptr %11, align 4, !tbaa !21
  %56 = sext i32 %55 to i64
  %57 = getelementptr inbounds i32, ptr %54, i64 %56
  %58 = load i32, ptr %57, align 4, !tbaa !21
  %59 = sext i32 %58 to i64
  %60 = getelementptr inbounds i32, ptr %49, i64 %59
  store i32 %48, ptr %60, align 4, !tbaa !21
  br label %61

61:                                               ; preds = %47, %36
  br label %62

62:                                               ; preds = %61
  %63 = load i32, ptr %11, align 4, !tbaa !21
  %64 = add nsw i32 %63, 1
  store i32 %64, ptr %11, align 4, !tbaa !21
  br label %29, !llvm.loop !200

65:                                               ; preds = %29
  %66 = load ptr, ptr %2, align 8, !tbaa !3
  %67 = getelementptr inbounds nuw %struct.Clu_Man_t_, ptr %66, i32 0, i32 15
  %68 = load ptr, ptr %67, align 8, !tbaa !22
  %69 = call ptr @Aig_ManDupWithoutPos(ptr noundef %68)
  store ptr %69, ptr %3, align 8, !tbaa !34
  store i32 0, ptr %9, align 4, !tbaa !21
  %70 = load ptr, ptr %2, align 8, !tbaa !3
  %71 = getelementptr inbounds nuw %struct.Clu_Man_t_, ptr %70, i32 0, i32 29
  %72 = load ptr, ptr %71, align 8, !tbaa !142
  %73 = call ptr @Vec_IntArray(ptr noundef %72)
  store ptr %73, ptr %7, align 8, !tbaa !42
  store i32 0, ptr %11, align 4, !tbaa !21
  br label %74

74:                                               ; preds = %125, %65
  %75 = load i32, ptr %11, align 4, !tbaa !21
  %76 = load ptr, ptr %2, align 8, !tbaa !3
  %77 = getelementptr inbounds nuw %struct.Clu_Man_t_, ptr %76, i32 0, i32 30
  %78 = load ptr, ptr %77, align 8, !tbaa !141
  %79 = call i32 @Vec_IntSize(ptr noundef %78)
  %80 = icmp slt i32 %75, %79
  br i1 %80, label %81, label %87

81:                                               ; preds = %74
  %82 = load ptr, ptr %2, align 8, !tbaa !3
  %83 = getelementptr inbounds nuw %struct.Clu_Man_t_, ptr %82, i32 0, i32 30
  %84 = load ptr, ptr %83, align 8, !tbaa !141
  %85 = load i32, ptr %11, align 4, !tbaa !21
  %86 = call i32 @Vec_IntEntry(ptr noundef %84, i32 noundef %85)
  store i32 %86, ptr %10, align 4, !tbaa !21
  br label %87

87:                                               ; preds = %81, %74
  %88 = phi i1 [ false, %74 ], [ true, %81 ]
  br i1 %88, label %89, label %128

89:                                               ; preds = %87
  %90 = load ptr, ptr %2, align 8, !tbaa !3
  %91 = load ptr, ptr %8, align 8, !tbaa !42
  %92 = load ptr, ptr %7, align 8, !tbaa !42
  %93 = load i32, ptr %9, align 4, !tbaa !21
  %94 = sext i32 %93 to i64
  %95 = getelementptr inbounds i32, ptr %92, i64 %94
  %96 = load i32, ptr %95, align 4, !tbaa !21
  %97 = call ptr @Fra_ClausGetLiteral(ptr noundef %90, ptr noundef %91, i32 noundef %96)
  store ptr %97, ptr %4, align 8, !tbaa !23
  %98 = load i32, ptr %9, align 4, !tbaa !21
  %99 = add nsw i32 %98, 1
  store i32 %99, ptr %12, align 4, !tbaa !21
  br label %100

100:                                              ; preds = %117, %89
  %101 = load i32, ptr %12, align 4, !tbaa !21
  %102 = load i32, ptr %10, align 4, !tbaa !21
  %103 = icmp slt i32 %101, %102
  br i1 %103, label %104, label %120

104:                                              ; preds = %100
  %105 = load ptr, ptr %2, align 8, !tbaa !3
  %106 = load ptr, ptr %8, align 8, !tbaa !42
  %107 = load ptr, ptr %7, align 8, !tbaa !42
  %108 = load i32, ptr %12, align 4, !tbaa !21
  %109 = sext i32 %108 to i64
  %110 = getelementptr inbounds i32, ptr %107, i64 %109
  %111 = load i32, ptr %110, align 4, !tbaa !21
  %112 = call ptr @Fra_ClausGetLiteral(ptr noundef %105, ptr noundef %106, i32 noundef %111)
  store ptr %112, ptr %5, align 8, !tbaa !23
  %113 = load ptr, ptr %3, align 8, !tbaa !34
  %114 = load ptr, ptr %4, align 8, !tbaa !23
  %115 = load ptr, ptr %5, align 8, !tbaa !23
  %116 = call ptr @Aig_Or(ptr noundef %113, ptr noundef %114, ptr noundef %115)
  store ptr %116, ptr %4, align 8, !tbaa !23
  br label %117

117:                                              ; preds = %104
  %118 = load i32, ptr %12, align 4, !tbaa !21
  %119 = add nsw i32 %118, 1
  store i32 %119, ptr %12, align 4, !tbaa !21
  br label %100, !llvm.loop !201

120:                                              ; preds = %100
  %121 = load ptr, ptr %3, align 8, !tbaa !34
  %122 = load ptr, ptr %4, align 8, !tbaa !23
  %123 = call ptr @Aig_ObjCreateCo(ptr noundef %121, ptr noundef %122)
  %124 = load i32, ptr %10, align 4, !tbaa !21
  store i32 %124, ptr %9, align 4, !tbaa !21
  br label %125

125:                                              ; preds = %120
  %126 = load i32, ptr %11, align 4, !tbaa !21
  %127 = add nsw i32 %126, 1
  store i32 %127, ptr %11, align 4, !tbaa !21
  br label %74, !llvm.loop !202

128:                                              ; preds = %87
  %129 = load ptr, ptr %8, align 8, !tbaa !42
  %130 = icmp ne ptr %129, null
  br i1 %130, label %131, label %133

131:                                              ; preds = %128
  %132 = load ptr, ptr %8, align 8, !tbaa !42
  call void @free(ptr noundef %132) #11
  store ptr null, ptr %8, align 8, !tbaa !42
  br label %134

133:                                              ; preds = %128
  br label %134

134:                                              ; preds = %133, %131
  %135 = load ptr, ptr %3, align 8, !tbaa !34
  %136 = call i32 @Aig_ManCleanup(ptr noundef %135)
  %137 = load ptr, ptr %2, align 8, !tbaa !3
  %138 = getelementptr inbounds nuw %struct.Clu_Man_t_, ptr %137, i32 0, i32 15
  %139 = load ptr, ptr %138, align 8, !tbaa !22
  %140 = getelementptr inbounds nuw %struct.Aig_Man_t_, ptr %139, i32 0, i32 0
  %141 = load ptr, ptr %140, align 8, !tbaa !203
  %142 = call ptr @Ioa_FileNameGenericAppend(ptr noundef %141, ptr noundef @.str.25)
  store ptr %142, ptr %6, align 8, !tbaa !124
  %143 = load ptr, ptr %6, align 8, !tbaa !124
  %144 = call i32 (ptr, ...) @printf(ptr noundef @.str.26, ptr noundef %143)
  %145 = load ptr, ptr %3, align 8, !tbaa !34
  %146 = load ptr, ptr %6, align 8, !tbaa !124
  call void @Ioa_WriteAiger(ptr noundef %145, ptr noundef %146, i32 noundef 0, i32 noundef 1)
  %147 = load ptr, ptr %3, align 8, !tbaa !34
  call void @Aig_ManStop(ptr noundef %147)
  call void @llvm.lifetime.end.p0(i64 4, ptr %12) #11
  call void @llvm.lifetime.end.p0(i64 4, ptr %11) #11
  call void @llvm.lifetime.end.p0(i64 4, ptr %10) #11
  call void @llvm.lifetime.end.p0(i64 4, ptr %9) #11
  call void @llvm.lifetime.end.p0(i64 8, ptr %8) #11
  call void @llvm.lifetime.end.p0(i64 8, ptr %7) #11
  call void @llvm.lifetime.end.p0(i64 8, ptr %6) #11
  call void @llvm.lifetime.end.p0(i64 8, ptr %5) #11
  call void @llvm.lifetime.end.p0(i64 8, ptr %4) #11
  call void @llvm.lifetime.end.p0(i64 8, ptr %3) #11
  ret void
}