; Function Attrs: nounwind uwtable
define void @Fra_ClausWriteIndClauses(ptr noundef readonly captures(none) %0) local_unnamed_addr #0 {
  %2 = getelementptr inbounds nuw i8, ptr %0, i64 88
  %3 = load ptr, ptr %2, align 8, !tbaa !3
  %4 = getelementptr inbounds nuw i8, ptr %3, i64 8
  %5 = load i32, ptr %4, align 8, !tbaa !14
  %6 = sext i32 %5 to i64
  %7 = shl nsw i64 %6, 2
  %8 = tail call noalias ptr @malloc(i64 noundef %7) #24
  tail call void @llvm.memset.p0.i64(ptr align 4 %8, i8 -1, i64 %7, i1 false)
  %9 = getelementptr inbounds nuw i8, ptr %0, i64 64
  %10 = load ptr, ptr %9, align 8, !tbaa !21
  %11 = getelementptr i8, ptr %10, i64 32
  %.val52 = load ptr, ptr %11, align 8, !tbaa !108
  %12 = getelementptr i8, ptr %.val52, i64 4
  %.val52.val = load i32, ptr %12, align 4, !tbaa !97
  %13 = icmp sgt i32 %.val52.val, 0
  br i1 %13, label %.lr.ph, label %._crit_edge

.lr.ph:                                           ; preds = %1
  %14 = getelementptr inbounds nuw i8, ptr %3, i64 32
  %15 = load ptr, ptr %14, align 8, !tbaa !36
  %wide.trip.count = zext nneg i32 %.val52.val to i64
  br label %16

16:                                               ; preds = %.lr.ph, %24
  %indvars.iv = phi i64 [ 0, %.lr.ph ], [ %indvars.iv.next, %24 ]
  %17 = getelementptr inbounds nuw i32, ptr %15, i64 %indvars.iv
  %18 = load i32, ptr %17, align 4, !tbaa !38
  %19 = icmp sgt i32 %18, -1
  br i1 %19, label %20, label %24

20:                                               ; preds = %16
  %21 = zext nneg i32 %18 to i64
  %22 = getelementptr inbounds nuw i32, ptr %8, i64 %21
  %23 = trunc nuw nsw i64 %indvars.iv to i32
  store i32 %23, ptr %22, align 4, !tbaa !38
  br label %24

24:                                               ; preds = %16, %20
  %indvars.iv.next = add nuw nsw i64 %indvars.iv, 1
  %exitcond.not = icmp eq i64 %indvars.iv.next, %wide.trip.count
  br i1 %exitcond.not, label %._crit_edge, label %16, !llvm.loop !193

._crit_edge:                                      ; preds = %24, %1
  %25 = tail call ptr @Aig_ManDupWithoutPos(ptr noundef nonnull %10) #23
  %26 = getelementptr inbounds nuw i8, ptr %0, i64 152
  %27 = load ptr, ptr %26, align 8, !tbaa !135
  %28 = getelementptr i8, ptr %27, i64 8
  %.val51 = load ptr, ptr %28, align 8, !tbaa !79
  %29 = getelementptr inbounds nuw i8, ptr %0, i64 160
  %30 = load ptr, ptr %29, align 8, !tbaa !134
  %31 = getelementptr i8, ptr %30, i64 4
  %.val64 = load i32, ptr %31, align 4, !tbaa !77
  %32 = icmp sgt i32 %.val64, 0
  br i1 %32, label %.lr.ph68, label %.critedge

.lr.ph68:                                         ; preds = %._crit_edge, %._crit_edge62
  %indvars.iv74 = phi i64 [ %indvars.iv.next75, %._crit_edge62 ], [ 0, %._crit_edge ]
  %33 = phi ptr [ %80, %._crit_edge62 ], [ %30, %._crit_edge ]
  %.04665 = phi i32 [ %36, %._crit_edge62 ], [ 0, %._crit_edge ]
  %34 = getelementptr i8, ptr %33, i64 8
  %.val50 = load ptr, ptr %34, align 8, !tbaa !79
  %35 = getelementptr inbounds nuw i32, ptr %.val50, i64 %indvars.iv74
  %36 = load i32, ptr %35, align 4, !tbaa !38
  %37 = sext i32 %.04665 to i64
  %38 = getelementptr inbounds i32, ptr %.val51, i64 %37
  %39 = load i32, ptr %38, align 4, !tbaa !38
  %40 = ashr i32 %39, 1
  %41 = sext i32 %40 to i64
  %42 = getelementptr inbounds i32, ptr %8, i64 %41
  %43 = load i32, ptr %42, align 4, !tbaa !38
  %44 = load ptr, ptr %9, align 8, !tbaa !21
  %45 = getelementptr i8, ptr %44, i64 32
  %.val.i = load ptr, ptr %45, align 8, !tbaa !108, !nonnull !192, !noundef !192
  %46 = getelementptr i8, ptr %.val.i, i64 8
  %.val.i.i = load ptr, ptr %46, align 8, !tbaa !31
  %47 = sext i32 %43 to i64
  %48 = getelementptr inbounds ptr, ptr %.val.i.i, i64 %47
  %49 = load ptr, ptr %48, align 8, !tbaa !33
  %50 = getelementptr inbounds nuw i8, ptr %49, i64 40
  %51 = load ptr, ptr %50, align 8, !tbaa !109
  %52 = and i32 %39, 1
  %53 = ptrtoint ptr %51 to i64
  %54 = zext nneg i32 %52 to i64
  %55 = xor i64 %53, %54
  %56 = inttoptr i64 %55 to ptr
  %.057 = add nsw i32 %.04665, 1
  %57 = icmp slt i32 %.057, %36
  br i1 %57, label %.lr.ph61.preheader, label %._crit_edge62

.lr.ph61.preheader:                               ; preds = %.lr.ph68
  %58 = add nsw i64 %37, 1
  br label %.lr.ph61

.lr.ph61:                                         ; preds = %.lr.ph61.preheader, %.lr.ph61
  %indvars.iv70 = phi i64 [ %58, %.lr.ph61.preheader ], [ %indvars.iv.next71, %.lr.ph61 ]
  %.04558 = phi ptr [ %56, %.lr.ph61.preheader ], [ %78, %.lr.ph61 ]
  %59 = getelementptr inbounds i32, ptr %.val51, i64 %indvars.iv70
  %60 = load i32, ptr %59, align 4, !tbaa !38
  %61 = ashr i32 %60, 1
  %62 = sext i32 %61 to i64
  %63 = getelementptr inbounds i32, ptr %8, i64 %62
  %64 = load i32, ptr %63, align 4, !tbaa !38
  %65 = load ptr, ptr %9, align 8, !tbaa !21
  %66 = getelementptr i8, ptr %65, i64 32
  %.val.i53 = load ptr, ptr %66, align 8, !tbaa !108, !nonnull !192, !noundef !192
  %67 = getelementptr i8, ptr %.val.i53, i64 8
  %.val.i.i54 = load ptr, ptr %67, align 8, !tbaa !31
  %68 = sext i32 %64 to i64
  %69 = getelementptr inbounds ptr, ptr %.val.i.i54, i64 %68
  %70 = load ptr, ptr %69, align 8, !tbaa !33
  %71 = getelementptr inbounds nuw i8, ptr %70, i64 40
  %72 = load ptr, ptr %71, align 8, !tbaa !109
  %73 = and i32 %60, 1
  %74 = ptrtoint ptr %72 to i64
  %75 = zext nneg i32 %73 to i64
  %76 = xor i64 %74, %75
  %77 = inttoptr i64 %76 to ptr
  %78 = tail call ptr @Aig_Or(ptr noundef %25, ptr noundef %.04558, ptr noundef %77) #23
  %indvars.iv.next71 = add nsw i64 %indvars.iv70, 1
  %lftr.wideiv = trunc i64 %indvars.iv.next71 to i32
  %exitcond73.not = icmp eq i32 %36, %lftr.wideiv
  br i1 %exitcond73.not, label %._crit_edge62, label %.lr.ph61, !llvm.loop !194

._crit_edge62:                                    ; preds = %.lr.ph61, %.lr.ph68
  %.045.lcssa = phi ptr [ %56, %.lr.ph68 ], [ %78, %.lr.ph61 ]
  %79 = tail call ptr @Aig_ObjCreateCo(ptr noundef %25, ptr noundef %.045.lcssa) #23
  %indvars.iv.next75 = add nuw nsw i64 %indvars.iv74, 1
  %80 = load ptr, ptr %29, align 8, !tbaa !134
  %81 = getelementptr i8, ptr %80, i64 4
  %.val = load i32, ptr %81, align 4, !tbaa !77
  %82 = sext i32 %.val to i64
  %83 = icmp slt i64 %indvars.iv.next75, %82
  br i1 %83, label %.lr.ph68, label %.critedge.thread, !llvm.loop !195

.critedge:                                        ; preds = %._crit_edge
  %.not = icmp eq ptr %8, null
  br i1 %.not, label %84, label %.critedge.thread

.critedge.thread:                                 ; preds = %._crit_edge62, %.critedge
  tail call void @free(ptr noundef nonnull %8) #23
  br label %84

84:                                               ; preds = %.critedge, %.critedge.thread
  %85 = tail call i32 @Aig_ManCleanup(ptr noundef %25) #23
  %86 = load ptr, ptr %9, align 8, !tbaa !21
  %87 = load ptr, ptr %86, align 8, !tbaa !196
  %88 = tail call ptr @Ioa_FileNameGenericAppend(ptr noundef %87, ptr noundef nonnull @.str.25) #23
  %89 = tail call i32 (ptr, ...) @printf(ptr noundef nonnull dereferenceable(1) @.str.26, ptr noundef %88)
  tail call void @Ioa_WriteAiger(ptr noundef %25, ptr noundef %88, i32 noundef 0, i32 noundef 1) #23
  tail call void @Aig_ManStop(ptr noundef %25) #23
  ret void
}